target datalayout = "e-m:e-p270:32:32-p271:32:32-p272:64:64-i64:64-i128:128-f80:128-n8:16:32:64-S128"
target triple = "x86_64-pc-linux-gnu"

%struct.reassembly_table = type { ptr, ptr, ptr, ptr, ptr }
%struct.reassembly_table_functions = type { ptr, ptr, ptr, ptr, ptr, ptr }

@.str.170 = private unnamed_addr constant [6 x i8] c"DICOM\00", align 1
@.str.171 = private unnamed_addr constant [6 x i8] c"dicom\00", align 1
@proto_dcm = internal global i32 0, align 4
@dcm_handle = internal global ptr null, align 8
@.str.172 = private unnamed_addr constant [10 x i8] c"heuristic\00", align 1
@.str.173 = private unnamed_addr constant [14 x i8] c"export_header\00", align 1
@.str.174 = private unnamed_addr constant [29 x i8] c"Create Meta Header on Export\00", align 1
@.str.175 = private unnamed_addr constant [211 x i8] c"Create DICOM File Meta Header according to PS 3.10 on export for PDUs. If the captured PDV does not contain a SOP Class UID and SOP Instance UID (e.g. for command PDVs), wireshark specific ones will be created.\00", align 1
@global_dcm_export_header = internal global i8 1, align 1
@.str.176 = private unnamed_addr constant [15 x i8] c"export_minsize\00", align 1
@.str.177 = private unnamed_addr constant [34 x i8] c"Min. item size in bytes to export\00", align 1
@.str.178 = private unnamed_addr constant [190 x i8] c"Do not show items below this size in the export list. Set it to 0, to see DICOM commands and responses in the list. Set it higher, to just export DICOM IODs (i.e. CT Images, RT Structures).\00", align 1
@global_dcm_export_minsize = internal global i32 4096, align 4
@.str.179 = private unnamed_addr constant [9 x i8] c"seq_tree\00", align 1
@.str.180 = private unnamed_addr constant [40 x i8] c"Create subtrees for Sequences and Items\00", align 1
@.str.181 = private unnamed_addr constant [176 x i8] c"Create a node for sequences and items, and show children in a hierarchy. De-select this option, if you prefer a flat display or e.g. when using TShark to create a text output.\00", align 1
@global_dcm_seq_subtree = internal global i8 1, align 1
@.str.182 = private unnamed_addr constant [9 x i8] c"tag_tree\00", align 1
@.str.183 = private unnamed_addr constant [31 x i8] c"Create subtrees for DICOM Tags\00", align 1
@.str.184 = private unnamed_addr constant [226 x i8] c"Create a node for a tag and show tag details as single elements. This can be useful to debug a tag and to allow display filters on these attributes. When using TShark to create a text output, it's better to have it disabled. \00", align 1
@global_dcm_tag_subtree = internal global i8 0, align 1
@.str.185 = private unnamed_addr constant [12 x i8] c"cmd_details\00", align 1
@.str.186 = private unnamed_addr constant [31 x i8] c"Show command details in header\00", align 1
@.str.187 = private unnamed_addr constant [107 x i8] c"Show message ID and number of completed, remaining, warned or failed operations in header and info column.\00", align 1
@global_dcm_cmd_details = internal global i8 1, align 1
@.str.188 = private unnamed_addr constant [15 x i8] c"pdv_reassemble\00", align 1
@.str.189 = private unnamed_addr constant [22 x i8] c"Merge fragmented PDVs\00", align 1
@.str.190 = private unnamed_addr constant [233 x i8] c"Decode all DICOM tags in the last PDV. This will ensure the proper reassembly. De-select, to troubleshoot PDU length issues, or to understand PDV fragmentation. When not set, the decoding may fail and the exports may become corrupt.\00", align 1
@global_dcm_reassemble = internal global i8 1, align 1
@dicom_eo_tap = internal global i32 0, align 4
@dcm_pdv_reassembly_table = internal global %struct.reassembly_table zeroinitializer, align 8
@addresses_reassembly_table_functions = external constant %struct.reassembly_table_functions, align 8

; Function Attrs: null_pointer_is_valid sspstrong uwtable
define hidden void @proto_register_dcm() #0 {
  %1 = alloca ptr, align 8
  %2 = alloca ptr, align 8
  call void @llvm.lifetime.start.p0(i64 8, ptr %1) #14
  call void @llvm.lifetime.start.p0(i64 8, ptr %2) #14
  %3 = call i32 @proto_register_protocol(ptr noundef @.str.170, ptr noundef @.str.170, ptr noundef @.str.171)
  store i32 %3, ptr @proto_dcm, align 4
  %4 = load i32, ptr @proto_dcm, align 4
  call void @proto_register_field_array(i32 noundef %4, ptr noundef @proto_register_dcm.hf, i32 noundef 68)
  call void @proto_register_subtree_array(ptr noundef @proto_register_dcm.ett, i32 noundef 23)
  %5 = load i32, ptr @proto_dcm, align 4
  %6 = call ptr @expert_register_protocol(i32 noundef %5)
  store ptr %6, ptr %2, align 8
  %7 = load ptr, ptr %2, align 8
  call void @expert_register_field_array(ptr noundef %7, ptr noundef @proto_register_dcm.ei, i32 noundef 14)
  %8 = load i32, ptr @proto_dcm, align 4
  %9 = call ptr @register_dissector(ptr noundef @.str.171, ptr noundef @dissect_dcm_static, i32 noundef %8)
  store ptr %9, ptr @dcm_handle, align 8
  %10 = load i32, ptr @proto_dcm, align 4
  %11 = call ptr @prefs_register_protocol(i32 noundef %10, ptr noundef null)
  store ptr %11, ptr %1, align 8
  %12 = load ptr, ptr %1, align 8
  call void @prefs_register_obsolete_preference(ptr noundef %12, ptr noundef @.str.172)
  %13 = load ptr, ptr %1, align 8
  call void @prefs_register_bool_preference(ptr noundef %13, ptr noundef @.str.173, ptr noundef @.str.174, ptr noundef @.str.175, ptr noundef @global_dcm_export_header)
  %14 = load ptr, ptr %1, align 8
  call void @prefs_register_uint_preference(ptr noundef %14, ptr noundef @.str.176, ptr noundef @.str.177, ptr noundef @.str.178, i32 noundef 10, ptr noundef @global_dcm_export_minsize)
  %15 = load ptr, ptr %1, align 8
  call void @prefs_register_bool_preference(ptr noundef %15, ptr noundef @.str.179, ptr noundef @.str.180, ptr noundef @.str.181, ptr noundef @global_dcm_seq_subtree)
  %16 = load ptr, ptr %1, align 8
  call void @prefs_register_bool_preference(ptr noundef %16, ptr noundef @.str.182, ptr noundef @.str.183, ptr noundef @.str.184, ptr noundef @global_dcm_tag_subtree)
  %17 = load ptr, ptr %1, align 8
  call void @prefs_register_bool_preference(ptr noundef %17, ptr noundef @.str.185, ptr noundef @.str.186, ptr noundef @.str.187, ptr noundef @global_dcm_cmd_details)
  %18 = load ptr, ptr %1, align 8
  call void @prefs_register_bool_preference(ptr noundef %18, ptr noundef @.str.188, ptr noundef @.str.189, ptr noundef @.str.190, ptr noundef @global_dcm_reassemble)
  %19 = load i32, ptr @proto_dcm, align 4
  %20 = call i32 @register_export_object(i32 noundef %19, ptr noundef @dcm_eo_packet, ptr noundef null)
  store i32 %20, ptr @dicom_eo_tap, align 4
  call void @register_init_routine(ptr noundef @dcm_init)
  call void @reassembly_table_register(ptr noundef @dcm_pdv_reassembly_table, ptr noundef @addresses_reassembly_table_functions)
  call void @llvm.lifetime.end.p0(i64 8, ptr %2) #14
  call void @llvm.lifetime.end.p0(i64 8, ptr %1) #14
  ret void
}