; Function Attrs: null_pointer_is_valid sspstrong uwtable
define hidden void @proto_register_dcm() local_unnamed_addr #0 {
  %1 = tail call i32 @proto_register_protocol(ptr noundef nonnull @.str.170, ptr noundef nonnull @.str.170, ptr noundef nonnull @.str.171)
  store i32 %1, ptr @proto_dcm, align 4
  tail call void @proto_register_field_array(i32 noundef %1, ptr noundef nonnull @proto_register_dcm.hf, i32 noundef 68)
  tail call void @proto_register_subtree_array(ptr noundef nonnull @proto_register_dcm.ett, i32 noundef 23)
  %2 = load i32, ptr @proto_dcm, align 4
  %3 = tail call ptr @expert_register_protocol(i32 noundef %2)
  tail call void @expert_register_field_array(ptr noundef %3, ptr noundef nonnull @proto_register_dcm.ei, i32 noundef 14)
  %4 = load i32, ptr @proto_dcm, align 4
  %5 = tail call ptr @register_dissector(ptr noundef nonnull @.str.171, ptr noundef nonnull @dissect_dcm_static, i32 noundef %4)
  store ptr %5, ptr @dcm_handle, align 8
  %6 = load i32, ptr @proto_dcm, align 4
  %7 = tail call ptr @prefs_register_protocol(i32 noundef %6, ptr noundef null)
  tail call void @prefs_register_obsolete_preference(ptr noundef %7, ptr noundef nonnull @.str.172)
  tail call void @prefs_register_bool_preference(ptr noundef %7, ptr noundef nonnull @.str.173, ptr noundef nonnull @.str.174, ptr noundef nonnull @.str.175, ptr noundef nonnull @global_dcm_export_header)
  tail call void @prefs_register_uint_preference(ptr noundef %7, ptr noundef nonnull @.str.176, ptr noundef nonnull @.str.177, ptr noundef nonnull @.str.178, i32 noundef 10, ptr noundef nonnull @global_dcm_export_minsize)
  tail call void @prefs_register_bool_preference(ptr noundef %7, ptr noundef nonnull @.str.179, ptr noundef nonnull @.str.180, ptr noundef nonnull @.str.181, ptr noundef nonnull @global_dcm_seq_subtree)
  tail call void @prefs_register_bool_preference(ptr noundef %7, ptr noundef nonnull @.str.182, ptr noundef nonnull @.str.183, ptr noundef nonnull @.str.184, ptr noundef nonnull @global_dcm_tag_subtree)
  tail call void @prefs_register_bool_preference(ptr noundef %7, ptr noundef nonnull @.str.185, ptr noundef nonnull @.str.186, ptr noundef nonnull @.str.187, ptr noundef nonnull @global_dcm_cmd_details)
  tail call void @prefs_register_bool_preference(ptr noundef %7, ptr noundef nonnull @.str.188, ptr noundef nonnull @.str.189, ptr noundef nonnull @.str.190, ptr noundef nonnull @global_dcm_reassemble)
  %8 = load i32, ptr @proto_dcm, align 4
  %9 = tail call i32 @register_export_object(i32 noundef %8, ptr noundef nonnull @dcm_eo_packet, ptr noundef null)
  store i32 %9, ptr @dicom_eo_tap, align 4
  tail call void @register_init_routine(ptr noundef nonnull @dcm_init)
  tail call void @reassembly_table_register(ptr noundef nonnull @dcm_pdv_reassembly_table, ptr noundef nonnull @addresses_reassembly_table_functions)
  ret void
}